; Function Attrs: mustprogress uwtable
define void @_ZN5tsi_tC2EiPPc(ptr noundef nonnull align 8 dereferenceable(912) %0, i32 noundef %1, ptr noundef %2) unnamed_addr #3 align 2 personality ptr @__gxx_personality_v0 {
  tail call void @_ZN6htif_tC2EiPPc(ptr noundef nonnull align 8 dereferenceable(712) %0, i32 noundef %1, ptr noundef %2)
  store ptr getelementptr inbounds nuw inrange(-16, 128) (i8, ptr @_ZTV5tsi_t, i64 16), ptr %0, align 8, !tbaa !93
  %4 = getelementptr inbounds nuw i8, ptr %0, i64 712
  invoke void @_ZN9context_tC1Ev(ptr noundef nonnull align 8 dereferenceable(32) %4)
          to label %5 unwind label %12

5:                                                ; preds = %3
  %6 = getelementptr inbounds nuw i8, ptr %0, i64 752
  tail call void @llvm.memset.p0.i64(ptr noundef nonnull align 8 dereferenceable(80) %6, i8 0, i64 80, i1 false)
  invoke void @_ZNSt11_Deque_baseIjSaIjEE17_M_initialize_mapEm(ptr noundef nonnull align 8 dereferenceable(80) %6, i64 noundef 0)
          to label %_ZNSt5dequeIjSaIjEEC2Ev.exit unwind label %14

_ZNSt5dequeIjSaIjEEC2Ev.exit:                     ; preds = %5
  %7 = getelementptr inbounds nuw i8, ptr %0, i64 832
  tail call void @llvm.memset.p0.i64(ptr noundef nonnull align 8 dereferenceable(80) %7, i8 0, i64 80, i1 false)
  invoke void @_ZNSt11_Deque_baseIjSaIjEE17_M_initialize_mapEm(ptr noundef nonnull align 8 dereferenceable(80) %7, i64 noundef 0)
          to label %_ZNSt5dequeIjSaIjEEC2Ev.exit10 unwind label %16

_ZNSt5dequeIjSaIjEEC2Ev.exit10:                   ; preds = %_ZNSt5dequeIjSaIjEEC2Ev.exit
  %8 = invoke noundef ptr @_ZN9context_t7currentEv()
          to label %9 unwind label %18

9:                                                ; preds = %_ZNSt5dequeIjSaIjEEC2Ev.exit10
  %10 = getelementptr inbounds nuw i8, ptr %0, i64 744
  store ptr %8, ptr %10, align 8, !tbaa !3
  invoke void @_ZN9context_t4initEPFvPvES0_(ptr noundef nonnull align 8 dereferenceable(32) %4, ptr noundef nonnull @_ZN5tsi_t11host_threadEPv, ptr noundef nonnull %0)
          to label %11 unwind label %18

11:                                               ; preds = %9
  ret void

12:                                               ; preds = %3
  %13 = landingpad { ptr, i32 }
          cleanup
  br label %22

14:                                               ; preds = %5
  %15 = landingpad { ptr, i32 }
          cleanup
  br label %21

16:                                               ; preds = %_ZNSt5dequeIjSaIjEEC2Ev.exit
  %17 = landingpad { ptr, i32 }
          cleanup
  br label %20

18:                                               ; preds = %9, %_ZNSt5dequeIjSaIjEEC2Ev.exit10
  %19 = landingpad { ptr, i32 }
          cleanup
  tail call void @_ZNSt5dequeIjSaIjEED2Ev(ptr noundef nonnull align 8 dereferenceable(80) %7) #17
  br label %20

20:                                               ; preds = %18, %16
  %.pn = phi { ptr, i32 } [ %19, %18 ], [ %17, %16 ]
  tail call void @_ZNSt5dequeIjSaIjEED2Ev(ptr noundef nonnull align 8 dereferenceable(80) %6) #17
  br label %21

21:                                               ; preds = %20, %14
  %.pn.pn = phi { ptr, i32 } [ %.pn, %20 ], [ %15, %14 ]
  tail call void @_ZN9context_tD1Ev(ptr noundef nonnull align 8 dereferenceable(32) %4) #17
  br label %22

22:                                               ; preds = %21, %12
  %.pn.pn.pn = phi { ptr, i32 } [ %.pn.pn, %21 ], [ %13, %12 ]
  tail call void @_ZN6htif_tD2Ev(ptr noundef nonnull align 8 dereferenceable(712) %0) #17
  resume { ptr, i32 } %.pn.pn.pn
}